target datalayout = "e-m:e-p270:32:32-p271:32:32-p272:64:64-i64:64-i128:128-f80:128-n8:16:32:64-S128"
target triple = "x86_64-pc-linux-gnu"

%struct.redisServer = type { i32, i64, ptr, ptr, ptr, i32, i32, i32, i32, i32, ptr, ptr, ptr, ptr, ptr, i32, i32, i32, i32, i64, i32, i32, i32, i32, ptr, i32, i32, [41 x i8], i32, i64, i32, i32, i32, ptr, ptr, i32, i32, i64, ptr, ptr, ptr, ptr, [2 x i32], i32, i32, i32, i32, i32, i32, [16 x ptr], i32, ptr, ptr, i32, [8 x %struct.connListener], i32, %struct.connListener, ptr, ptr, ptr, ptr, ptr, ptr, ptr, ptr, ptr, ptr, i32, ptr, i32, ptr, [3 x %struct.pause_event], [256 x i8], ptr, i64, i32, i32, [128 x i32], i32, i32, i64, i32, i32, i32, i32, i32, i64, i64, i64, i64, i64, i64, i64, i64, i64, i64, double, i64, i64, i64, i64, i64, i64, i64, i64, i64, i64, i64, i64, i64, i64, i64, i64, i64, i64, i64, i64, i64, double, i64, i64, i64, i64, i64, ptr, i64, i64, i64, %struct.malloc_stats, i64, i64, i64, i64, i64, i64, i64, i64, i64, i64, i64, i64, double, [4 x i64], i64, i64, i64, i64, [128 x i64], [128 x i64], i64, i64, [7 x %struct.anon], i64, i64, i64, i64, i64, i64, [4 x %struct.durationStats], i32, i32, i32, i32, i32, i32, i32, i32, i32, i32, i32, i32, i64, i32, i32, i32, i32, i64, i64, i32, i32, i32, i32, i32, ptr, [3 x %struct.clientBufferLimitsConfig], i32, i32, i32, ptr, i32, i32, i32, i32, i32, i32, ptr, ptr, i32, i32, i64, i64, i64, i64, i64, i32, i32, ptr, i32, i32, i64, i64, i64, i64, i64, i32, i32, i64, i32, i32, i32, i32, i32, i32, i32, i32, ptr, i32, i64, i64, i64, i64, i32, ptr, i32, ptr, i32, i32, i32, i64, i64, i64, i64, i32, i32, i32, i32, i32, i32, ptr, i32, i32, ptr, i32, i32, i32, [2 x i32], i32, %struct.redisOpArray, i32, ptr, i32, ptr, i32, i32, i32, i32, i32, i32, i32, [41 x i8], [41 x i8], i64, i64, i64, i64, i32, i32, ptr, i64, i64, %struct.replDataBuf, i64, i64, i32, i32, i32, i32, i32, i32, i32, i32, i32, i64, ptr, i64, ptr, ptr, ptr, i32, i32, ptr, ptr, i32, i32, i32, i64, i64, i64, i64, ptr, ptr, i32, ptr, i64, i32, i32, i32, i64, i32, i32, i32, i32, ptr, i32, i32, [41 x i8], i64, i32, ptr, i32, i32, i64, i64, i32, i32, i32, i32, i32, i64, [3 x i32], i32, i32, i32, [10 x i32], ptr, ptr, i32, i64, ptr, ptr, i32, i32, i32, i32, i64, i64, i64, i64, i64, i64, i64, i64, i64, i64, i32, i32, i64, i64, i32, i64, i64, i64, i64, i64, ptr, ptr, i32, ptr, i32, i32, i32, i32, i64, i64, ptr, ptr, i32, i32, i32, i32, i32, ptr, ptr, ptr, i32, i32, i32, i32, i32, i32, i32, i64, i32, i32, i64, i32, i32, i32, i32, i32, i32, i32, i64, ptr, ptr, i64, ptr, i32, %struct.aclInfo, i32, i64, i32, i32, i32, %struct.redisTLSContextConfig, ptr, ptr, ptr, ptr, ptr, i64, i32, ptr, i32, i32, i32, i64, i32, ptr }
%struct.connListener = type { [16 x i32], i32, ptr, i32, i32, ptr, ptr }
%struct.pause_event = type { i32, i64 }
%struct.malloc_stats = type { i64, i64, i64, i64, i64, i64, i64, i64, i64, i64, i64 }
%struct.anon = type { i64, i64, [16 x i64], i32 }
%struct.durationStats = type { i64, i64, i64 }
%struct.clientBufferLimitsConfig = type { i64, i64, i64 }
%struct.redisOpArray = type { ptr, i32, i32 }
%struct.replDataBuf = type { ptr, i64, i64, i64, i64 }
%struct.aclInfo = type { i64, i64, i64, i64 }
%struct.redisTLSContextConfig = type { ptr, ptr, ptr, ptr, ptr, ptr, ptr, ptr, ptr, ptr, ptr, ptr, i32, i32, i32, i32 }
%struct.sharedObjectsStruct = type { ptr, ptr, ptr, ptr, ptr, ptr, ptr, ptr, [4 x ptr], [4 x ptr], [4 x ptr], [4 x ptr], ptr, ptr, ptr, ptr, ptr, ptr, ptr, ptr, ptr, ptr, ptr, ptr, ptr, ptr, ptr, ptr, ptr, ptr, ptr, ptr, ptr, ptr, ptr, ptr, ptr, ptr, ptr, ptr, ptr, ptr, ptr, ptr, ptr, ptr, ptr, ptr, ptr, ptr, ptr, ptr, ptr, ptr, ptr, ptr, ptr, ptr, ptr, ptr, ptr, ptr, ptr, ptr, ptr, ptr, ptr, ptr, ptr, ptr, ptr, ptr, ptr, ptr, ptr, ptr, ptr, ptr, ptr, ptr, ptr, ptr, ptr, ptr, ptr, ptr, ptr, ptr, [10 x ptr], [10000 x ptr], [32 x ptr], [32 x ptr], [32 x ptr], [32 x ptr], ptr, ptr }
%struct.redisObject = type { i32, i32, ptr }
%struct.dict = type { ptr, [2 x ptr], [2 x i64], i64, i16, [2 x i8], i16, [0 x ptr] }
%struct.client = type { i64, i64, ptr, i8, i8, i8, i8, i32, ptr, ptr, ptr, ptr, ptr, i64, i64, i32, ptr, i32, i32, ptr, i64, ptr, ptr, ptr, ptr, ptr, i32, i32, i64, ptr, i64, ptr, i64, i64, i64, i32, ptr, i64, i64, i32, i32, i32, i32, i64, i64, ptr, i64, i64, i64, i64, i64, i64, i64, i64, [41 x i8], i32, ptr, i32, i32, i64, %struct.multiState, %struct.blockingState, i64, ptr, ptr, ptr, ptr, ptr, ptr, ptr, ptr, ptr, ptr, ptr, ptr, ptr, ptr, i64, ptr, i64, i32, ptr, ptr, ptr, i64, %struct.listNode, i64, i64, i32, i64, ptr }
%struct.multiState = type { ptr, i32, i32, i32, i64, i32 }
%struct.blockingState = type { i32, i64, i32, ptr, i32, i32, i64, ptr, ptr, i64 }
%struct.listNode = type { ptr, ptr, ptr }
%struct.redisDb = type { ptr, ptr, ptr, ptr, ptr, ptr, ptr, i32, i64, i64, ptr }

@server = external global %struct.redisServer, align 8
@.str.1 = private unnamed_addr constant [8 x i8] c"t_set.c\00", align 1
@.str.3 = private unnamed_addr constant [21 x i8] c"Unknown set encoding\00", align 1
@shared = external global %struct.sharedObjectsStruct, align 8
@.str.11 = private unnamed_addr constant [4 x i8] c"del\00", align 1
@.str.12 = private unnamed_addr constant [5 x i8] c"spop\00", align 1

; Function Attrs: nounwind uwtable
define dso_local i64 @setTypeSize(ptr noundef %0) #0 {
  %2 = alloca i64, align 8
  %3 = alloca ptr, align 8
  store ptr %0, ptr %3, align 8, !tbaa !41
  %4 = load ptr, ptr %3, align 8, !tbaa !41
  %5 = load i32, ptr %4, align 8
  %6 = lshr i32 %5, 4
  %7 = and i32 %6, 15
  %8 = icmp eq i32 %7, 2
  br i1 %8, label %9, label %23

9:                                                ; preds = %1
  %10 = load ptr, ptr %3, align 8, !tbaa !41
  %11 = getelementptr inbounds nuw %struct.redisObject, ptr %10, i32 0, i32 2
  %12 = load ptr, ptr %11, align 8, !tbaa !43
  %13 = getelementptr inbounds nuw %struct.dict, ptr %12, i32 0, i32 2
  %14 = getelementptr inbounds [2 x i64], ptr %13, i64 0, i64 0
  %15 = load i64, ptr %14, align 8, !tbaa !10
  %16 = load ptr, ptr %3, align 8, !tbaa !41
  %17 = getelementptr inbounds nuw %struct.redisObject, ptr %16, i32 0, i32 2
  %18 = load ptr, ptr %17, align 8, !tbaa !43
  %19 = getelementptr inbounds nuw %struct.dict, ptr %18, i32 0, i32 2
  %20 = getelementptr inbounds [2 x i64], ptr %19, i64 0, i64 1
  %21 = load i64, ptr %20, align 8, !tbaa !10
  %22 = add i64 %15, %21
  store i64 %22, ptr %2, align 8
  br label %47

23:                                               ; preds = %1
  %24 = load ptr, ptr %3, align 8, !tbaa !41
  %25 = load i32, ptr %24, align 8
  %26 = lshr i32 %25, 4
  %27 = and i32 %26, 15
  %28 = icmp eq i32 %27, 6
  br i1 %28, label %29, label %35

29:                                               ; preds = %23
  %30 = load ptr, ptr %3, align 8, !tbaa !41
  %31 = getelementptr inbounds nuw %struct.redisObject, ptr %30, i32 0, i32 2
  %32 = load ptr, ptr %31, align 8, !tbaa !43
  %33 = call i32 @intsetLen(ptr noundef %32)
  %34 = zext i32 %33 to i64
  store i64 %34, ptr %2, align 8
  br label %47

35:                                               ; preds = %23
  %36 = load ptr, ptr %3, align 8, !tbaa !41
  %37 = load i32, ptr %36, align 8
  %38 = lshr i32 %37, 4
  %39 = and i32 %38, 15
  %40 = icmp eq i32 %39, 11
  br i1 %40, label %41, label %46

41:                                               ; preds = %35
  %42 = load ptr, ptr %3, align 8, !tbaa !41
  %43 = getelementptr inbounds nuw %struct.redisObject, ptr %42, i32 0, i32 2
  %44 = load ptr, ptr %43, align 8, !tbaa !43
  %45 = call i64 @lpLength(ptr noundef %44)
  store i64 %45, ptr %2, align 8
  br label %47

46:                                               ; preds = %35
  call void (ptr, i32, ptr, ...) @_serverPanic(ptr noundef @.str.1, i32 noundef 471, ptr noundef @.str.3)
  call void @abort() #11
  unreachable

47:                                               ; preds = %41, %29, %9
  %48 = load i64, ptr %2, align 8
  ret i64 %48
}

; Function Attrs: nounwind uwtable
define dso_local void @spopCommand(ptr noundef %0) #0 {
  %2 = alloca ptr, align 8
  %3 = alloca i64, align 8
  %4 = alloca ptr, align 8
  %5 = alloca ptr, align 8
  %6 = alloca i32, align 4
  store ptr %0, ptr %2, align 8, !tbaa !71
  call void @llvm.lifetime.start.p0(i64 8, ptr %3) #10
  call void @llvm.lifetime.start.p0(i64 8, ptr %4) #10
  call void @llvm.lifetime.start.p0(i64 8, ptr %5) #10
  %7 = load ptr, ptr %2, align 8, !tbaa !71
  %8 = getelementptr inbounds nuw %struct.client, ptr %7, i32 0, i32 15
  %9 = load i32, ptr %8, align 8, !tbaa !82
  %10 = icmp eq i32 %9, 3
  br i1 %10, label %11, label %13

11:                                               ; preds = %1
  %12 = load ptr, ptr %2, align 8, !tbaa !71
  call void @spopWithCountCommand(ptr noundef %12)
  store i32 1, ptr %6, align 4
  br label %118

13:                                               ; preds = %1
  %14 = load ptr, ptr %2, align 8, !tbaa !71
  %15 = getelementptr inbounds nuw %struct.client, ptr %14, i32 0, i32 15
  %16 = load i32, ptr %15, align 8, !tbaa !82
  %17 = icmp sgt i32 %16, 3
  br i1 %17, label %18, label %21

18:                                               ; preds = %13
  %19 = load ptr, ptr %2, align 8, !tbaa !71
  %20 = load ptr, ptr getelementptr inbounds nuw (%struct.sharedObjectsStruct, ptr @shared, i32 0, i32 15), align 8, !tbaa !116
  call void @addReplyErrorObject(ptr noundef %19, ptr noundef %20)
  store i32 1, ptr %6, align 4
  br label %118

21:                                               ; preds = %13
  br label %22

22:                                               ; preds = %21
  %23 = load ptr, ptr %2, align 8, !tbaa !71
  %24 = load ptr, ptr %2, align 8, !tbaa !71
  %25 = getelementptr inbounds nuw %struct.client, ptr %24, i32 0, i32 16
  %26 = load ptr, ptr %25, align 8, !tbaa !81
  %27 = getelementptr inbounds ptr, ptr %26, i64 1
  %28 = load ptr, ptr %27, align 8, !tbaa !41
  %29 = load ptr, ptr %2, align 8, !tbaa !71
  %30 = getelementptr inbounds nuw %struct.client, ptr %29, i32 0, i32 7
  %31 = load i32, ptr %30, align 4, !tbaa !92
  %32 = sext i32 %31 to i64
  %33 = getelementptr inbounds [4 x ptr], ptr getelementptr inbounds nuw (%struct.sharedObjectsStruct, ptr @shared, i32 0, i32 8), i64 0, i64 %32
  %34 = load ptr, ptr %33, align 8, !tbaa !41
  %35 = call ptr @lookupKeyWriteOrReply(ptr noundef %23, ptr noundef %28, ptr noundef %34)
  store ptr %35, ptr %4, align 8, !tbaa !41
  %36 = icmp eq ptr %35, null
  br i1 %36, label %42, label %37

37:                                               ; preds = %22
  %38 = load ptr, ptr %2, align 8, !tbaa !71
  %39 = load ptr, ptr %4, align 8, !tbaa !41
  %40 = call i32 @checkType(ptr noundef %38, ptr noundef %39, i32 noundef 2)
  %41 = icmp ne i32 %40, 0
  br i1 %41, label %42, label %43

42:                                               ; preds = %37, %22
  store i32 1, ptr %6, align 4
  br label %118

43:                                               ; preds = %37
  %44 = load ptr, ptr %4, align 8, !tbaa !41
  %45 = call i64 @setTypeSize(ptr noundef %44)
  store i64 %45, ptr %3, align 8, !tbaa !10
  %46 = load ptr, ptr %2, align 8, !tbaa !71
  %47 = getelementptr inbounds nuw %struct.client, ptr %46, i32 0, i32 8
  %48 = load ptr, ptr %47, align 8, !tbaa !72
  %49 = load ptr, ptr %2, align 8, !tbaa !71
  %50 = getelementptr inbounds nuw %struct.client, ptr %49, i32 0, i32 16
  %51 = load ptr, ptr %50, align 8, !tbaa !81
  %52 = getelementptr inbounds ptr, ptr %51, i64 1
  %53 = load ptr, ptr %52, align 8, !tbaa !41
  %54 = getelementptr inbounds nuw %struct.redisObject, ptr %53, i32 0, i32 2
  %55 = load ptr, ptr %54, align 8, !tbaa !43
  %56 = call i32 @getKeySlot(ptr noundef %55)
  %57 = load i64, ptr %3, align 8, !tbaa !10
  %58 = load i64, ptr %3, align 8, !tbaa !10
  %59 = sub i64 %58, 1
  call void @updateKeysizesHist(ptr noundef %48, i32 noundef %56, i32 noundef 2, i64 noundef %57, i64 noundef %59)
  %60 = load ptr, ptr %4, align 8, !tbaa !41
  %61 = call ptr @setTypePopRandom(ptr noundef %60)
  store ptr %61, ptr %5, align 8, !tbaa !41
  %62 = load ptr, ptr %2, align 8, !tbaa !71
  %63 = getelementptr inbounds nuw %struct.client, ptr %62, i32 0, i32 16
  %64 = load ptr, ptr %63, align 8, !tbaa !81
  %65 = getelementptr inbounds ptr, ptr %64, i64 1
  %66 = load ptr, ptr %65, align 8, !tbaa !41
  %67 = load ptr, ptr %2, align 8, !tbaa !71
  %68 = getelementptr inbounds nuw %struct.client, ptr %67, i32 0, i32 8
  %69 = load ptr, ptr %68, align 8, !tbaa !72
  %70 = getelementptr inbounds nuw %struct.redisDb, ptr %69, i32 0, i32 7
  %71 = load i32, ptr %70, align 8, !tbaa !84
  call void @notifyKeyspaceEvent(i32 noundef 32, ptr noundef @.str.12, ptr noundef %66, i32 noundef %71)
  %72 = load ptr, ptr %2, align 8, !tbaa !71
  %73 = load ptr, ptr getelementptr inbounds nuw (%struct.sharedObjectsStruct, ptr @shared, i32 0, i32 54), align 8, !tbaa !97
  %74 = load ptr, ptr %2, align 8, !tbaa !71
  %75 = getelementptr inbounds nuw %struct.client, ptr %74, i32 0, i32 16
  %76 = load ptr, ptr %75, align 8, !tbaa !81
  %77 = getelementptr inbounds ptr, ptr %76, i64 1
  %78 = load ptr, ptr %77, align 8, !tbaa !41
  %79 = load ptr, ptr %5, align 8, !tbaa !41
  call void (ptr, i32, ...) @rewriteClientCommandVector(ptr noundef %72, i32 noundef 3, ptr noundef %73, ptr noundef %78, ptr noundef %79)
  %80 = load ptr, ptr %2, align 8, !tbaa !71
  %81 = load ptr, ptr %5, align 8, !tbaa !41
  call void @addReplyBulk(ptr noundef %80, ptr noundef %81)
  %82 = load ptr, ptr %5, align 8, !tbaa !41
  call void @decrRefCount(ptr noundef %82)
  %83 = load ptr, ptr %4, align 8, !tbaa !41
  %84 = call i64 @setTypeSize(ptr noundef %83)
  %85 = icmp eq i64 %84, 0
  br i1 %85, label %86, label %106

86:                                               ; preds = %43
  %87 = load ptr, ptr %2, align 8, !tbaa !71
  %88 = getelementptr inbounds nuw %struct.client, ptr %87, i32 0, i32 8
  %89 = load ptr, ptr %88, align 8, !tbaa !72
  %90 = load ptr, ptr %2, align 8, !tbaa !71
  %91 = getelementptr inbounds nuw %struct.client, ptr %90, i32 0, i32 16
  %92 = load ptr, ptr %91, align 8, !tbaa !81
  %93 = getelementptr inbounds ptr, ptr %92, i64 1
  %94 = load ptr, ptr %93, align 8, !tbaa !41
  %95 = call i32 @dbDelete(ptr noundef %89, ptr noundef %94)
  %96 = load ptr, ptr %2, align 8, !tbaa !71
  %97 = getelementptr inbounds nuw %struct.client, ptr %96, i32 0, i32 16
  %98 = load ptr, ptr %97, align 8, !tbaa !81
  %99 = getelementptr inbounds ptr, ptr %98, i64 1
  %100 = load ptr, ptr %99, align 8, !tbaa !41
  %101 = load ptr, ptr %2, align 8, !tbaa !71
  %102 = getelementptr inbounds nuw %struct.client, ptr %101, i32 0, i32 8
  %103 = load ptr, ptr %102, align 8, !tbaa !72
  %104 = getelementptr inbounds nuw %struct.redisDb, ptr %103, i32 0, i32 7
  %105 = load i32, ptr %104, align 8, !tbaa !84
  call void @notifyKeyspaceEvent(i32 noundef 4, ptr noundef @.str.11, ptr noundef %100, i32 noundef %105)
  br label %106

106:                                              ; preds = %86, %43
  %107 = load ptr, ptr %2, align 8, !tbaa !71
  %108 = load ptr, ptr %2, align 8, !tbaa !71
  %109 = getelementptr inbounds nuw %struct.client, ptr %108, i32 0, i32 8
  %110 = load ptr, ptr %109, align 8, !tbaa !72
  %111 = load ptr, ptr %2, align 8, !tbaa !71
  %112 = getelementptr inbounds nuw %struct.client, ptr %111, i32 0, i32 16
  %113 = load ptr, ptr %112, align 8, !tbaa !81
  %114 = getelementptr inbounds ptr, ptr %113, i64 1
  %115 = load ptr, ptr %114, align 8, !tbaa !41
  call void @signalModifiedKey(ptr noundef %107, ptr noundef %110, ptr noundef %115)
  %116 = load i64, ptr getelementptr inbounds nuw (%struct.redisServer, ptr @server, i32 0, i32 227), align 8, !tbaa !86
  %117 = add nsw i64 %116, 1
  store i64 %117, ptr getelementptr inbounds nuw (%struct.redisServer, ptr @server, i32 0, i32 227), align 8, !tbaa !86
  store i32 0, ptr %6, align 4
  br label %118

118:                                              ; preds = %106, %42, %18, %11
  call void @llvm.lifetime.end.p0(i64 8, ptr %5) #10
  call void @llvm.lifetime.end.p0(i64 8, ptr %4) #10
  call void @llvm.lifetime.end.p0(i64 8, ptr %3) #10
  %119 = load i32, ptr %6, align 4
  switch i32 %119, label %121 [
    i32 0, label %120
    i32 1, label %120
  ]

120:                                              ; preds = %118, %118
  ret void

121:                                              ; preds = %118
  unreachable
}