; Function Attrs: nounwind uwtable
define dso_local void @spopCommand(ptr noundef %0) local_unnamed_addr #0 {
  %2 = getelementptr inbounds nuw i8, ptr %0, i64 88
  %3 = load i32, ptr %2, align 8, !tbaa !74
  %4 = icmp eq i32 %3, 3
  br i1 %4, label %5, label %6

5:                                                ; preds = %1
  tail call void @spopWithCountCommand(ptr noundef nonnull %0)
  br label %107

6:                                                ; preds = %1
  %7 = icmp sgt i32 %3, 3
  br i1 %7, label %8, label %10

8:                                                ; preds = %6
  %9 = load ptr, ptr getelementptr inbounds nuw (i8, ptr @shared, i64 216), align 8, !tbaa !105
  tail call void @addReplyErrorObject(ptr noundef nonnull %0, ptr noundef %9) #10
  br label %107

10:                                               ; preds = %6
  %11 = getelementptr inbounds nuw i8, ptr %0, i64 96
  %12 = load ptr, ptr %11, align 8, !tbaa !72
  %13 = getelementptr inbounds nuw i8, ptr %12, i64 8
  %14 = load ptr, ptr %13, align 8, !tbaa !73
  %15 = getelementptr inbounds nuw i8, ptr %0, i64 28
  %16 = load i32, ptr %15, align 4, !tbaa !84
  %17 = sext i32 %16 to i64
  %18 = getelementptr inbounds [4 x ptr], ptr getelementptr inbounds nuw (i8, ptr @shared, i64 64), i64 0, i64 %17
  %19 = load ptr, ptr %18, align 8, !tbaa !73
  %20 = tail call ptr @lookupKeyWriteOrReply(ptr noundef nonnull %0, ptr noundef %14, ptr noundef %19) #10
  %21 = icmp eq ptr %20, null
  br i1 %21, label %107, label %22

22:                                               ; preds = %10
  %23 = tail call i32 @checkType(ptr noundef nonnull %0, ptr noundef nonnull %20, i32 noundef 2) #10
  %.not = icmp eq i32 %23, 0
  br i1 %.not, label %24, label %107

24:                                               ; preds = %22
  %25 = load i32, ptr %20, align 8
  %26 = lshr i32 %25, 4
  %27 = and i32 %26, 15
  switch i32 %27, label %45 [
    i32 2, label %28
    i32 6, label %36
    i32 11, label %41
  ]

28:                                               ; preds = %24
  %29 = getelementptr inbounds nuw i8, ptr %20, i64 8
  %30 = load ptr, ptr %29, align 8, !tbaa !38
  %31 = getelementptr inbounds nuw i8, ptr %30, i64 24
  %32 = load i64, ptr %31, align 8, !tbaa !50
  %33 = getelementptr inbounds nuw i8, ptr %30, i64 32
  %34 = load i64, ptr %33, align 8, !tbaa !50
  %35 = add i64 %34, %32
  br label %setTypeSize.exit

36:                                               ; preds = %24
  %37 = getelementptr inbounds nuw i8, ptr %20, i64 8
  %38 = load ptr, ptr %37, align 8, !tbaa !38
  %39 = tail call i32 @intsetLen(ptr noundef %38) #10
  %40 = zext i32 %39 to i64
  br label %setTypeSize.exit

41:                                               ; preds = %24
  %42 = getelementptr inbounds nuw i8, ptr %20, i64 8
  %43 = load ptr, ptr %42, align 8, !tbaa !38
  %44 = tail call i64 @lpLength(ptr noundef %43) #10
  br label %setTypeSize.exit

45:                                               ; preds = %24
  tail call void (ptr, i32, ptr, ...) @_serverPanic(ptr noundef nonnull @.str.1, i32 noundef 471, ptr noundef nonnull @.str.3) #10
  tail call void @abort() #11
  unreachable

setTypeSize.exit:                                 ; preds = %28, %36, %41
  %.0.i = phi i64 [ %35, %28 ], [ %40, %36 ], [ %44, %41 ]
  %46 = getelementptr inbounds nuw i8, ptr %0, i64 32
  %47 = load ptr, ptr %46, align 8, !tbaa !62
  %48 = load ptr, ptr %11, align 8, !tbaa !72
  %49 = getelementptr inbounds nuw i8, ptr %48, i64 8
  %50 = load ptr, ptr %49, align 8, !tbaa !73
  %51 = getelementptr inbounds nuw i8, ptr %50, i64 8
  %52 = load ptr, ptr %51, align 8, !tbaa !38
  %53 = tail call i32 @getKeySlot(ptr noundef %52) #10
  %54 = add i64 %.0.i, -1
  tail call void @updateKeysizesHist(ptr noundef %47, i32 noundef %53, i32 noundef 2, i64 noundef %.0.i, i64 noundef %54) #10
  %55 = tail call ptr @setTypePopRandom(ptr noundef nonnull %20)
  %56 = load ptr, ptr %11, align 8, !tbaa !72
  %57 = getelementptr inbounds nuw i8, ptr %56, i64 8
  %58 = load ptr, ptr %57, align 8, !tbaa !73
  %59 = load ptr, ptr %46, align 8, !tbaa !62
  %60 = getelementptr inbounds nuw i8, ptr %59, i64 56
  %61 = load i32, ptr %60, align 8, !tbaa !76
  tail call void @notifyKeyspaceEvent(i32 noundef 32, ptr noundef nonnull @.str.12, ptr noundef %58, i32 noundef %61) #10
  %62 = load ptr, ptr getelementptr inbounds nuw (i8, ptr @shared, i64 528), align 8, !tbaa !86
  %63 = load ptr, ptr %11, align 8, !tbaa !72
  %64 = getelementptr inbounds nuw i8, ptr %63, i64 8
  %65 = load ptr, ptr %64, align 8, !tbaa !73
  tail call void (ptr, i32, ...) @rewriteClientCommandVector(ptr noundef nonnull %0, i32 noundef 3, ptr noundef %62, ptr noundef %65, ptr noundef %55) #10
  tail call void @addReplyBulk(ptr noundef nonnull %0, ptr noundef %55) #10
  tail call void @decrRefCount(ptr noundef %55) #10
  %66 = load i32, ptr %20, align 8
  %67 = lshr i32 %66, 4
  %68 = and i32 %67, 15
  switch i32 %68, label %86 [
    i32 2, label %69
    i32 6, label %77
    i32 11, label %82
  ]

69:                                               ; preds = %setTypeSize.exit
  %70 = getelementptr inbounds nuw i8, ptr %20, i64 8
  %71 = load ptr, ptr %70, align 8, !tbaa !38
  %72 = getelementptr inbounds nuw i8, ptr %71, i64 24
  %73 = load i64, ptr %72, align 8, !tbaa !50
  %74 = getelementptr inbounds nuw i8, ptr %71, i64 32
  %75 = load i64, ptr %74, align 8, !tbaa !50
  %76 = add i64 %75, %73
  br label %setTypeSize.exit32

77:                                               ; preds = %setTypeSize.exit
  %78 = getelementptr inbounds nuw i8, ptr %20, i64 8
  %79 = load ptr, ptr %78, align 8, !tbaa !38
  %80 = tail call i32 @intsetLen(ptr noundef %79) #10
  %81 = zext i32 %80 to i64
  br label %setTypeSize.exit32

82:                                               ; preds = %setTypeSize.exit
  %83 = getelementptr inbounds nuw i8, ptr %20, i64 8
  %84 = load ptr, ptr %83, align 8, !tbaa !38
  %85 = tail call i64 @lpLength(ptr noundef %84) #10
  br label %setTypeSize.exit32

86:                                               ; preds = %setTypeSize.exit
  tail call void (ptr, i32, ptr, ...) @_serverPanic(ptr noundef nonnull @.str.1, i32 noundef 471, ptr noundef nonnull @.str.3) #10
  tail call void @abort() #11
  unreachable

setTypeSize.exit32:                               ; preds = %69, %77, %82
  %.0.i31 = phi i64 [ %76, %69 ], [ %81, %77 ], [ %85, %82 ]
  %87 = icmp eq i64 %.0.i31, 0
  br i1 %87, label %88, label %100

88:                                               ; preds = %setTypeSize.exit32
  %89 = load ptr, ptr %46, align 8, !tbaa !62
  %90 = load ptr, ptr %11, align 8, !tbaa !72
  %91 = getelementptr inbounds nuw i8, ptr %90, i64 8
  %92 = load ptr, ptr %91, align 8, !tbaa !73
  %93 = tail call i32 @dbDelete(ptr noundef %89, ptr noundef %92) #10
  %94 = load ptr, ptr %11, align 8, !tbaa !72
  %95 = getelementptr inbounds nuw i8, ptr %94, i64 8
  %96 = load ptr, ptr %95, align 8, !tbaa !73
  %97 = load ptr, ptr %46, align 8, !tbaa !62
  %98 = getelementptr inbounds nuw i8, ptr %97, i64 56
  %99 = load i32, ptr %98, align 8, !tbaa !76
  tail call void @notifyKeyspaceEvent(i32 noundef 4, ptr noundef nonnull @.str.11, ptr noundef %96, i32 noundef %99) #10
  br label %100

100:                                              ; preds = %88, %setTypeSize.exit32
  %101 = load ptr, ptr %46, align 8, !tbaa !62
  %102 = load ptr, ptr %11, align 8, !tbaa !72
  %103 = getelementptr inbounds nuw i8, ptr %102, i64 8
  %104 = load ptr, ptr %103, align 8, !tbaa !73
  tail call void @signalModifiedKey(ptr noundef nonnull %0, ptr noundef %101, ptr noundef %104) #10
  %105 = load i64, ptr getelementptr inbounds nuw (i8, ptr @server, i64 6720), align 8, !tbaa !78
  %106 = add nsw i64 %105, 1
  store i64 %106, ptr getelementptr inbounds nuw (i8, ptr @server, i64 6720), align 8, !tbaa !78
  br label %107

107:                                              ; preds = %10, %22, %100, %8, %5
  ret void
}